(lp1
ccopy_reg
_reconstructor
p2
(cmhri_common.msg._PersonPercept
PersonPercept
p3
c__builtin__
object
p4
NtRp5
(lp6
g2
(csensor_msgs.msg._RegionOfInterest
RegionOfInterest
p7
g4
NtRp8
(lp9
I469
aI205
aI72
aI74
aI00
abag2
(g7
g4
NtRp10
(lp11
I498
aI218
aI0
aI0
aI00
abag2
(g7
g4
NtRp12
(lp13
I527
aI219
aI0
aI0
aI00
abag2
(g7
g4
NtRp14
(lp15
I445
aI295
aI144
aI123
aI00
abaI-1
aI00
a(I467
I212
I469
I224
I470
I237
I473
I249
I480
I259
I489
I267
I498
I275
I508
I281
I519
I281
I527
I277
I532
I269
I535
I261
I538
I250
I541
I241
I543
I232
I543
I222
I542
I213
I487
I216
I494
I211
I502
I209
I511
I209
I519
I211
I527
I211
I531
I208
I535
I205
I539
I203
I543
I203
I524
I217
I526
I223
I528
I230
I529
I237
I515
I241
I521
I242
I527
I243
I532
I240
I535
I236
I497
I217
I502
I215
I507
I215
I511
I217
I507
I218
I502
I218
I529
I214
I532
I211
I536
I210
I538
I211
I536
I213
I533
I213
I504
I251
I513
I250
I521
I248
I526
I248
I530
I246
I533
I245
I536
I246
I534
I252
I530
I256
I526
I258
I521
I259
I513
I257
I507
I251
I521
I251
I526
I250
I529
I249
I535
I247
I530
I251
I526
I253
I521
I254
tp16
aS'blue'
p17
aS'short'
p18
aI0
aI2
aI0
aI1
aI0
aS''
aS'326847399_0'
p19
aS'353784980_0'
p20
aI1
aF70.852890014648438
aS''
aba.